ccopy_reg
_reconstructor
p1
(cneat.chromosome
FFChromosome
p2
c__builtin__
object
p3
NtRp4
(dp5
S'species_id'
p6
NsS'_connection_genes'
p7
(dp8
(I11
I16
tp9
g1
(cneat.genome
ConnectionGene
p10
g3
NtRp11
(dp12
S'_ConnectionGene__weight'
p13
F0.3025081624068055
sS'_ConnectionGene__in'
p14
I11
sS'_ConnectionGene__enabled'
p15
I01
sS'_ConnectionGene__out'
p16
I16
sS'_ConnectionGene__innov_number'
p17
I60
sbs(I3
I15
tp18
g1
(g10
g3
NtRp19
(dp20
g13
F-0.50639917280983182
sg14
I3
sg15
I01
sg16
I15
sg17
I38
sbs(I15
I13
tp21
g1
(g10
g3
NtRp22
(dp23
g13
F-1.6107798347612976
sg14
I15
sg15
I01
sg16
I13
sg17
I49
sbs(I8
I13
tp24
g1
(g10
g3
NtRp25
(dp26
g13
F1.6099251268469894
sg14
I8
sg15
I01
sg16
I13
sg17
I19
sbs(I7
I12
tp27
g1
(g10
g3
NtRp28
(dp29
g13
F0.50824026830089464
sg14
I7
sg15
I01
sg16
I12
sg17
I7
sbs(I5
I13
tp30
g1
(g10
g3
NtRp31
(dp32
g13
F-0.23203866335955059
sg14
I5
sg15
I01
sg16
I13
sg17
I16
sbs(I14
I13
tp33
g1
(g10
g3
NtRp34
(dp35
g13
F1.0774736548248924
sg14
I14
sg15
I01
sg16
I13
sg17
I35
sbs(I1
I15
tp36
g1
(g10
g3
NtRp37
(dp38
g13
F-2.3107731858376686
sg14
I1
sg15
I01
sg16
I15
sg17
I36
sbs(I10
I15
tp39
g1
(g10
g3
NtRp40
(dp41
g13
F-0.23243166247636554
sg14
I10
sg15
I01
sg16
I15
sg17
I45
sbs(I4
I12
tp42
g1
(g10
g3
NtRp43
(dp44
g13
F1.6807146040988306
sg14
I4
sg15
I01
sg16
I12
sg17
I4
sbs(I7
I16
tp45
g1
(g10
g3
NtRp46
(dp47
g13
F-0.84434193524056433
sg14
I7
sg15
I01
sg16
I16
sg17
I56
sbs(I2
I12
tp48
g1
(g10
g3
NtRp49
(dp50
g13
F-0.13270008024832872
sg14
I2
sg15
I01
sg16
I12
sg17
I2
sbs(I11
I14
tp51
g1
(g10
g3
NtRp52
(dp53
g13
F-1.7376404679966093
sg14
I11
sg15
I01
sg16
I14
sg17
I33
sbs(I16
I13
tp54
g1
(g10
g3
NtRp55
(dp56
g13
F-0.24014330132894474
sg14
I16
sg15
I01
sg16
I13
sg17
I64
sbs(I3
I14
tp57
g1
(g10
g3
NtRp58
(dp59
g13
F-0.9408737127680058
sg14
I3
sg15
I01
sg16
I14
sg17
I25
sbs(I6
I14
tp60
g1
(g10
g3
NtRp61
(dp62
g13
F0.83167652280338034
sg14
I6
sg15
I01
sg16
I14
sg17
I28
sbs(I15
I12
tp63
g1
(g10
g3
NtRp64
(dp65
g13
F-0.15271101632115305
sg14
I15
sg15
I01
sg16
I12
sg17
I48
sbs(I8
I14
tp66
g1
(g10
g3
NtRp67
(dp68
g13
F1.2287263120928593
sg14
I8
sg15
I01
sg16
I14
sg17
I30
sbs(I7
I15
tp69
g1
(g10
g3
NtRp70
(dp71
g13
F-0.6363598206403458
sg14
I7
sg15
I01
sg16
I15
sg17
I42
sbs(I9
I15
tp72
g1
(g10
g3
NtRp73
(dp74
g13
F-0.84272038620640766
sg14
I9
sg15
I01
sg16
I15
sg17
I44
sbs(I5
I12
tp75
g1
(g10
g3
NtRp76
(dp77
g13
F-0.86518790474385365
sg14
I5
sg15
I01
sg16
I12
sg17
I5
sbs(I1
I14
tp78
g1
(g10
g3
NtRp79
(dp80
g13
F-0.24071800209162347
sg14
I1
sg15
I01
sg16
I14
sg17
I23
sbs(I10
I12
tp81
g1
(g10
g3
NtRp82
(dp83
g13
F1.0313585539127001
sg14
I10
sg15
I01
sg16
I12
sg17
I10
sbs(I4
I13
tp84
g1
(g10
g3
NtRp85
(dp86
g13
F-1.4729780675136546
sg14
I4
sg15
I01
sg16
I13
sg17
I15
sbs(I2
I13
tp87
g1
(g10
g3
NtRp88
(dp89
g13
F-0.65630195292223947
sg14
I2
sg15
I01
sg16
I13
sg17
I13
sbs(I3
I16
tp90
g1
(g10
g3
NtRp91
(dp92
g13
F0.26046925958611977
sg14
I3
sg15
I01
sg16
I16
sg17
I52
sbs(I8
I16
tp93
g1
(g10
g3
NtRp94
(dp95
g13
F0.22752762802606502
sg14
I8
sg15
I01
sg16
I16
sg17
I57
sbs(I6
I15
tp96
g1
(g10
g3
NtRp97
(dp98
g13
F1.6578005341409665
sg14
I6
sg15
I01
sg16
I15
sg17
I41
sbs(I8
I15
tp99
g1
(g10
g3
NtRp100
(dp101
g13
F-0.4439297515645102
sg14
I8
sg15
I01
sg16
I15
sg17
I43
sbs(I11
I13
tp102
g1
(g10
g3
NtRp103
(dp104
g13
F1.2306838897381702
sg14
I11
sg15
I01
sg16
I13
sg17
I22
sbs(I2
I16
tp105
g1
(g10
g3
NtRp106
(dp107
g13
F0.65950042642596884
sg14
I2
sg15
I01
sg16
I16
sg17
I51
sbs(I7
I14
tp108
g1
(g10
g3
NtRp109
(dp110
g13
F1.6434878444994128
sg14
I7
sg15
I01
sg16
I14
sg17
I29
sbs(I9
I14
tp111
g1
(g10
g3
NtRp112
(dp113
g13
F0.1577952832437427
sg14
I9
sg15
I01
sg16
I14
sg17
I31
sbs(I3
I13
tp114
g1
(g10
g3
NtRp115
(dp116
g13
F0.61297237066074883
sg14
I3
sg15
I01
sg16
I13
sg17
I14
sbs(I1
I13
tp117
g1
(g10
g3
NtRp118
(dp119
g13
F-0.26550975060273913
sg14
I1
sg15
I01
sg16
I13
sg17
I12
sbs(I10
I13
tp120
g1
(g10
g3
NtRp121
(dp122
g13
F-1.2735045040896351
sg14
I10
sg15
I01
sg16
I13
sg17
I21
sbs(I4
I14
tp123
g1
(g10
g3
NtRp124
(dp125
g13
F0.34488645434399512
sg14
I4
sg15
I01
sg16
I14
sg17
I26
sbs(I4
I16
tp126
g1
(g10
g3
NtRp127
(dp128
g13
F-0.62673762540986078
sg14
I4
sg15
I01
sg16
I16
sg17
I53
sbs(I9
I16
tp129
g1
(g10
g3
NtRp130
(dp131
g13
F-1.5501353422097743
sg14
I9
sg15
I01
sg16
I16
sg17
I58
sbs(I5
I15
tp132
g1
(g10
g3
NtRp133
(dp134
g13
F0.47442314304170391
sg14
I5
sg15
I01
sg16
I15
sg17
I40
sbs(I14
I15
tp135
g1
(g10
g3
NtRp136
(dp137
g13
F1.2016570236142721
sg14
I14
sg15
I01
sg16
I15
sg17
I47
sbs(I16
I12
tp138
g1
(g10
g3
NtRp139
(dp140
g13
F-0.20816631680714115
sg14
I16
sg15
I01
sg16
I12
sg17
I63
sbs(I6
I12
tp141
g1
(g10
g3
NtRp142
(dp143
g13
F-0.7909083342299541
sg14
I6
sg15
I01
sg16
I12
sg17
I6
sbs(I2
I14
tp144
g1
(g10
g3
NtRp145
(dp146
g13
F-0.60214286642422565
sg14
I2
sg15
I01
sg16
I14
sg17
I24
sbs(I11
I12
tp147
g1
(g10
g3
NtRp148
(dp149
g13
F0.58845482195177612
sg14
I11
sg15
I01
sg16
I12
sg17
I11
sbs(I14
I16
tp150
g1
(g10
g3
NtRp151
(dp152
g13
F1.0591973942673858
sg14
I14
sg15
I01
sg16
I16
sg17
I61
sbs(I9
I13
tp153
g1
(g10
g3
NtRp154
(dp155
g13
F0.12541784186720406
sg14
I9
sg15
I01
sg16
I13
sg17
I20
sbs(I3
I12
tp156
g1
(g10
g3
NtRp157
(dp158
g13
F-0.3447736106019364
sg14
I3
sg15
I01
sg16
I12
sg17
I3
sbs(I5
I16
tp159
g1
(g10
g3
NtRp160
(dp161
g13
F-0.84340311367554188
sg14
I5
sg15
I01
sg16
I16
sg17
I54
sbs(I1
I12
tp162
g1
(g10
g3
NtRp163
(dp164
g13
F-0.51782555198274582
sg14
I1
sg15
I01
sg16
I12
sg17
I1
sbs(I8
I12
tp165
g1
(g10
g3
NtRp166
(dp167
g13
F0.44580462217885031
sg14
I8
sg15
I01
sg16
I12
sg17
I8
sbs(I10
I16
tp168
g1
(g10
g3
NtRp169
(dp170
g13
F0.30950240851156746
sg14
I10
sg15
I01
sg16
I16
sg17
I59
sbs(I4
I15
tp171
g1
(g10
g3
NtRp172
(dp173
g13
F-0.1075342686925983
sg14
I4
sg15
I01
sg16
I15
sg17
I39
sbs(I7
I13
tp174
g1
(g10
g3
NtRp175
(dp176
g13
F0.2170671989794126
sg14
I7
sg15
I01
sg16
I13
sg17
I18
sbs(I6
I16
tp177
g1
(g10
g3
NtRp178
(dp179
g13
F1.5541421812152532
sg14
I6
sg15
I01
sg16
I16
sg17
I55
sbs(I5
I14
tp180
g1
(g10
g3
NtRp181
(dp182
g13
F0.19357487893138944
sg14
I5
sg15
I01
sg16
I14
sg17
I27
sbs(I14
I12
tp183
g1
(g10
g3
NtRp184
(dp185
g13
F1.5683448947980065
sg14
I14
sg15
I01
sg16
I12
sg17
I34
sbs(I10
I14
tp186
g1
(g10
g3
NtRp187
(dp188
g13
F0.13823856053262298
sg14
I10
sg15
I01
sg16
I14
sg17
I32
sbs(I6
I13
tp189
g1
(g10
g3
NtRp190
(dp191
g13
F-1.6967648090109826
sg14
I6
sg15
I01
sg16
I13
sg17
I17
sbs(I2
I15
tp192
g1
(g10
g3
NtRp193
(dp194
g13
F0.71405832282093296
sg14
I2
sg15
I01
sg16
I15
sg17
I37
sbs(I11
I15
tp195
g1
(g10
g3
NtRp196
(dp197
g13
F0.77886138096233215
sg14
I11
sg15
I01
sg16
I15
sg17
I46
sbs(I15
I16
tp198
g1
(g10
g3
NtRp199
(dp200
g13
F-1.1454524854132409
sg14
I15
sg15
I01
sg16
I16
sg17
I62
sbs(I1
I16
tp201
g1
(g10
g3
NtRp202
(dp203
g13
F0.81165817585428857
sg14
I1
sg15
I01
sg16
I16
sg17
I50
sbs(I9
I12
tp204
g1
(g10
g3
NtRp205
(dp206
g13
F-0.31284484026784737
sg14
I9
sg15
I01
sg16
I12
sg17
I9
sbssS'_input_nodes'
p207
I11
sS'_output_nodes'
p208
I2
sS'_node_gene_type'
p209
cneat.genome
NodeGene
p210
sS'_FFChromosome__node_order'
p211
(lp212
I14
aI15
aI16
asS'_conn_gene_type'
p213
g10
sS'fitness'
p214
NsS'parent2_id'
p215
I0
sS'_id'
p216
I41
sS'parent1_id'
p217
I0
sS'_node_genes'
p218
(lp219
g1
(g210
g3
NtRp220
(dp221
S'_bias'
p222
I0
sS'_type'
p223
S'INPUT'
p224
sg216
I1
sS'_response'
p225
F4.9242730000000003
sS'_activation_type'
p226
Nsbag1
(g210
g3
NtRp227
(dp228
g222
I0
sg223
g224
sg216
I2
sg225
F4.9242730000000003
sg226
Nsbag1
(g210
g3
NtRp229
(dp230
g222
I0
sg223
g224
sg216
I3
sg225
F4.9242730000000003
sg226
Nsbag1
(g210
g3
NtRp231
(dp232
g222
I0
sg223
g224
sg216
I4
sg225
F4.9242730000000003
sg226
Nsbag1
(g210
g3
NtRp233
(dp234
g222
I0
sg223
g224
sg216
I5
sg225
F4.9242730000000003
sg226
Nsbag1
(g210
g3
NtRp235
(dp236
g222
I0
sg223
g224
sg216
I6
sg225
F4.9242730000000003
sg226
Nsbag1
(g210
g3
NtRp237
(dp238
g222
I0
sg223
g224
sg216
I7
sg225
F4.9242730000000003
sg226
Nsbag1
(g210
g3
NtRp239
(dp240
g222
I0
sg223
g224
sg216
I8
sg225
F4.9242730000000003
sg226
Nsbag1
(g210
g3
NtRp241
(dp242
g222
I0
sg223
g224
sg216
I9
sg225
F4.9242730000000003
sg226
Nsbag1
(g210
g3
NtRp243
(dp244
g222
I0
sg223
g224
sg216
I10
sg225
F4.9242730000000003
sg226
Nsbag1
(g210
g3
NtRp245
(dp246
g222
I0
sg223
g224
sg216
I11
sg225
F4.9242730000000003
sg226
Nsbag1
(g210
g3
NtRp247
(dp248
g222
I0
sg223
S'OUTPUT'
p249
sg216
I12
sg225
F4.9242730000000003
sg226
S'tanh'
p250
sbag1
(g210
g3
NtRp251
(dp252
g222
I0
sg223
g249
sg216
I13
sg225
F4.9242730000000003
sg226
g250
sbag1
(g210
g3
NtRp253
(dp254
g222
I0
sg223
S'HIDDEN'
p255
sg216
I14
sg225
F4.9242730000000003
sg226
g250
sbag1
(g210
g3
NtRp256
(dp257
g222
I0
sg223
g255
sg216
I15
sg225
F4.9242730000000003
sg226
g250
sbag1
(g210
g3
NtRp258
(dp259
g222
I0
sg223
g255
sg216
I16
sg225
F4.9242730000000003
sg226
g250
sbasb.